target datalayout = "e-m:e-p270:32:32-p271:32:32-p272:64:64-i64:64-i128:128-f80:128-n8:16:32:64-S128"
target triple = "x86_64-pc-linux-gnu"

%"class.std::__1::ios_base" = type { ptr, i32, i64, i64, i32, i32, ptr, ptr, ptr, ptr, i64, i64, ptr, i64, i64, ptr, i64, i64 }
%"struct.std::__1::__less" = type { i8 }

@.str.2 = private unnamed_addr constant [16 x i8] c"ios_base::clear\00", align 1

; Function Attrs: mustprogress nounwind uwtable
define linkonce_odr hidden noundef zeroext i1 @_ZNKSt3__16__lessIvvEclB8ne210000ImmEEbRKT_RKT0_(ptr noundef nonnull align 1 dereferenceable(1) %0, ptr noundef nonnull align 8 dereferenceable(8) %1, ptr noundef nonnull align 8 dereferenceable(8) %2) #0 comdat align 2 {
  %4 = alloca ptr, align 8
  %5 = alloca ptr, align 8
  %6 = alloca ptr, align 8
  store ptr %0, ptr %4, align 8, !tbaa !113
  store ptr %1, ptr %5, align 8, !tbaa !49
  store ptr %2, ptr %6, align 8, !tbaa !49
  %7 = load ptr, ptr %5, align 8, !tbaa !49
  %8 = load i64, ptr %7, align 8, !tbaa !37
  %9 = load ptr, ptr %6, align 8, !tbaa !49
  %10 = load i64, ptr %9, align 8, !tbaa !37
  %11 = icmp ult i64 %8, %10
  ret i1 %11
}

; Function Attrs: inlinehint mustprogress uwtable
define linkonce_odr hidden noundef nonnull align 8 dereferenceable(8) ptr @_ZNSt3__13maxB8ne210000ImNS_6__lessIvvEEEERKT_S5_S5_T0_(ptr noundef nonnull align 8 dereferenceable(8) %0, ptr noundef nonnull align 8 dereferenceable(8) %1) #9 comdat {
  %3 = alloca %"struct.std::__1::__less", align 1
  %4 = alloca ptr, align 8
  %5 = alloca ptr, align 8
  store ptr %0, ptr %4, align 8, !tbaa !49
  store ptr %1, ptr %5, align 8, !tbaa !49
  %6 = load ptr, ptr %4, align 8, !tbaa !49
  %7 = load ptr, ptr %5, align 8, !tbaa !49
  %8 = call noundef zeroext i1 @_ZNKSt3__16__lessIvvEclB8ne210000ImmEEbRKT_RKT0_(ptr noundef nonnull align 1 dereferenceable(1) %3, ptr noundef nonnull align 8 dereferenceable(8) %6, ptr noundef nonnull align 8 dereferenceable(8) %7)
  br i1 %8, label %9, label %11

9:                                                ; preds = %2
  %10 = load ptr, ptr %5, align 8, !tbaa !49
  br label %13

11:                                               ; preds = %2
  %12 = load ptr, ptr %4, align 8, !tbaa !49
  br label %13

13:                                               ; preds = %11, %9
  %14 = phi ptr [ %10, %9 ], [ %12, %11 ]
  ret ptr %14
}

; Function Attrs: mustprogress uwtable
define dso_local void @_ZNSt3__18ios_base5clearEj(ptr noundef nonnull align 8 dereferenceable(136) %0, i32 noundef %1) #1 align 2 {
  %3 = alloca ptr, align 8
  %4 = alloca i32, align 4
  store ptr %0, ptr %3, align 8, !tbaa !27
  store i32 %1, ptr %4, align 4, !tbaa !9
  %5 = load ptr, ptr %3, align 8
  %6 = getelementptr inbounds nuw %"class.std::__1::ios_base", ptr %5, i32 0, i32 6
  %7 = load ptr, ptr %6, align 8, !tbaa !61
  %8 = icmp ne ptr %7, null
  br i1 %8, label %9, label %12

9:                                                ; preds = %2
  %10 = load i32, ptr %4, align 4, !tbaa !9
  %11 = getelementptr inbounds nuw %"class.std::__1::ios_base", ptr %5, i32 0, i32 4
  store i32 %10, ptr %11, align 8, !tbaa !52
  br label %16

12:                                               ; preds = %2
  %13 = load i32, ptr %4, align 4, !tbaa !9
  %14 = or i32 %13, 1
  %15 = getelementptr inbounds nuw %"class.std::__1::ios_base", ptr %5, i32 0, i32 4
  store i32 %14, ptr %15, align 8, !tbaa !52
  br label %16

16:                                               ; preds = %12, %9
  %17 = load i32, ptr %4, align 4, !tbaa !9
  %18 = getelementptr inbounds nuw %"class.std::__1::ios_base", ptr %5, i32 0, i32 6
  %19 = load ptr, ptr %18, align 8, !tbaa !61
  %20 = icmp ne ptr %19, null
  %21 = select i1 %20, i32 0, i32 1
  %22 = or i32 %17, %21
  %23 = getelementptr inbounds nuw %"class.std::__1::ios_base", ptr %5, i32 0, i32 5
  %24 = load i32, ptr %23, align 4, !tbaa !62
  %25 = and i32 %22, %24
  %26 = icmp ne i32 %25, 0
  br i1 %26, label %27, label %28

27:                                               ; preds = %16
  call void @_ZNSt3__115__throw_failureB8ne210000EPKc(ptr noundef @.str.2) #21
  unreachable

28:                                               ; preds = %16
  ret void
}

; Function Attrs: inlinehint mustprogress uwtable
define linkonce_odr hidden noundef nonnull align 8 dereferenceable(8) ptr @_ZNSt3__13maxB8ne210000ImEERKT_S3_S3_(ptr noundef nonnull align 8 dereferenceable(8) %0, ptr noundef nonnull align 8 dereferenceable(8) %1) #9 comdat {
  %3 = alloca ptr, align 8
  %4 = alloca ptr, align 8
  store ptr %0, ptr %3, align 8, !tbaa !49
  store ptr %1, ptr %4, align 8, !tbaa !49
  %5 = load ptr, ptr %3, align 8, !tbaa !49
  %6 = load ptr, ptr %4, align 8, !tbaa !49
  %7 = call noundef nonnull align 8 dereferenceable(8) ptr @_ZNSt3__13maxB8ne210000ImNS_6__lessIvvEEEERKT_S5_S5_T0_(ptr noundef nonnull align 8 dereferenceable(8) %5, ptr noundef nonnull align 8 dereferenceable(8) %6)
  ret ptr %7
}

; Function Attrs: inlinehint mustprogress uwtable
define linkonce_odr hidden void @_ZNSt3__18ios_base8setstateB8ne210000Ej(ptr noundef nonnull align 8 dereferenceable(136) %0, i32 noundef %1) #9 comdat align 2 {
  %3 = alloca ptr, align 8
  %4 = alloca i32, align 4
  store ptr %0, ptr %3, align 8, !tbaa !27
  store i32 %1, ptr %4, align 4, !tbaa !9
  %5 = load ptr, ptr %3, align 8
  %6 = getelementptr inbounds nuw %"class.std::__1::ios_base", ptr %5, i32 0, i32 4
  %7 = load i32, ptr %6, align 8, !tbaa !52
  %8 = load i32, ptr %4, align 4, !tbaa !9
  %9 = or i32 %7, %8
  call void @_ZNSt3__18ios_base5clearEj(ptr noundef nonnull align 8 dereferenceable(136) %5, i32 noundef %9)
  ret void
}

; Function Attrs: mustprogress uwtable
define internal noundef i64 @_ZNSt3__1L13__ios_new_capIPFvNS_8ios_base5eventERS1_iEEEmmm(i64 noundef %0, i64 noundef %1) #1 {
  %3 = alloca i64, align 8
  %4 = alloca i64, align 8
  %5 = alloca i64, align 8
  %6 = alloca i64, align 8
  %7 = alloca i64, align 8
  %8 = alloca i32, align 4
  store i64 %0, ptr %4, align 8, !tbaa !37
  store i64 %1, ptr %5, align 8, !tbaa !37
  call void @llvm.lifetime.start.p0(i64 8, ptr %6) #3
  store i64 2305843009213693951, ptr %6, align 8, !tbaa !37
  %9 = load i64, ptr %4, align 8, !tbaa !37
  %10 = icmp ult i64 %9, 1152921504606846975
  br i1 %10, label %11, label %16

11:                                               ; preds = %2
  call void @llvm.lifetime.start.p0(i64 8, ptr %7) #3
  %12 = load i64, ptr %5, align 8, !tbaa !37
  %13 = mul i64 2, %12
  store i64 %13, ptr %7, align 8, !tbaa !37
  %14 = call noundef nonnull align 8 dereferenceable(8) ptr @_ZNSt3__13maxB8ne210000ImEERKT_S3_S3_(ptr noundef nonnull align 8 dereferenceable(8) %7, ptr noundef nonnull align 8 dereferenceable(8) %4)
  %15 = load i64, ptr %14, align 8, !tbaa !37
  store i64 %15, ptr %3, align 8
  call void @llvm.lifetime.end.p0(i64 8, ptr %7) #3
  store i32 1, ptr %8, align 4
  br label %17

16:                                               ; preds = %2
  store i64 2305843009213693951, ptr %3, align 8
  store i32 1, ptr %8, align 4
  br label %17

17:                                               ; preds = %16, %11
  call void @llvm.lifetime.end.p0(i64 8, ptr %6) #3
  %18 = load i64, ptr %3, align 8
  ret i64 %18
}

; Function Attrs: mustprogress uwtable
define dso_local void @_ZNSt3__18ios_base17register_callbackEPFvNS0_5eventERS0_iEi(ptr noundef nonnull align 8 dereferenceable(136) %0, ptr noundef %1, i32 noundef %2) #1 align 2 {
  %4 = alloca ptr, align 8
  %5 = alloca ptr, align 8
  %6 = alloca i32, align 4
  %7 = alloca i64, align 8
  %8 = alloca i64, align 8
  %9 = alloca ptr, align 8
  %10 = alloca ptr, align 8
  store ptr %0, ptr %4, align 8, !tbaa !27
  store ptr %1, ptr %5, align 8, !tbaa !39
  store i32 %2, ptr %6, align 4, !tbaa !9
  %11 = load ptr, ptr %4, align 8
  call void @llvm.lifetime.start.p0(i64 8, ptr %7) #3
  %12 = getelementptr inbounds nuw %"class.std::__1::ios_base", ptr %11, i32 0, i32 10
  %13 = load i64, ptr %12, align 8, !tbaa !31
  %14 = add i64 %13, 1
  store i64 %14, ptr %7, align 8, !tbaa !37
  %15 = load i64, ptr %7, align 8, !tbaa !37
  %16 = getelementptr inbounds nuw %"class.std::__1::ios_base", ptr %11, i32 0, i32 11
  %17 = load i64, ptr %16, align 8, !tbaa !58
  %18 = icmp ugt i64 %15, %17
  br i1 %18, label %19, label %48

19:                                               ; preds = %3
  call void @llvm.lifetime.start.p0(i64 8, ptr %8) #3
  %20 = load i64, ptr %7, align 8, !tbaa !37
  %21 = getelementptr inbounds nuw %"class.std::__1::ios_base", ptr %11, i32 0, i32 11
  %22 = load i64, ptr %21, align 8, !tbaa !58
  %23 = call noundef i64 @_ZNSt3__1L13__ios_new_capIPFvNS_8ios_base5eventERS1_iEEEmmm(i64 noundef %20, i64 noundef %22)
  store i64 %23, ptr %8, align 8, !tbaa !37
  call void @llvm.lifetime.start.p0(i64 8, ptr %9) #3
  %24 = getelementptr inbounds nuw %"class.std::__1::ios_base", ptr %11, i32 0, i32 8
  %25 = load ptr, ptr %24, align 8, !tbaa !38
  %26 = load i64, ptr %8, align 8, !tbaa !37
  %27 = mul i64 %26, 8
  %28 = call ptr @realloc(ptr noundef %25, i64 noundef %27) #19
  store ptr %28, ptr %9, align 8, !tbaa !55
  %29 = load ptr, ptr %9, align 8, !tbaa !55
  %30 = icmp eq ptr %29, null
  br i1 %30, label %31, label %32

31:                                               ; preds = %19
  call void @_ZNSt3__18ios_base8setstateB8ne210000Ej(ptr noundef nonnull align 8 dereferenceable(136) %11, i32 noundef 1)
  br label %32

32:                                               ; preds = %31, %19
  %33 = load ptr, ptr %9, align 8, !tbaa !55
  %34 = getelementptr inbounds nuw %"class.std::__1::ios_base", ptr %11, i32 0, i32 8
  store ptr %33, ptr %34, align 8, !tbaa !38
  call void @llvm.lifetime.start.p0(i64 8, ptr %10) #3
  %35 = getelementptr inbounds nuw %"class.std::__1::ios_base", ptr %11, i32 0, i32 9
  %36 = load ptr, ptr %35, align 8, !tbaa !40
  %37 = load i64, ptr %8, align 8, !tbaa !37
  %38 = mul i64 %37, 4
  %39 = call ptr @realloc(ptr noundef %36, i64 noundef %38) #19
  store ptr %39, ptr %10, align 8, !tbaa !59
  %40 = load ptr, ptr %10, align 8, !tbaa !59
  %41 = icmp eq ptr %40, null
  br i1 %41, label %42, label %43

42:                                               ; preds = %32
  call void @_ZNSt3__18ios_base8setstateB8ne210000Ej(ptr noundef nonnull align 8 dereferenceable(136) %11, i32 noundef 1)
  br label %43

43:                                               ; preds = %42, %32
  %44 = load ptr, ptr %10, align 8, !tbaa !59
  %45 = getelementptr inbounds nuw %"class.std::__1::ios_base", ptr %11, i32 0, i32 9
  store ptr %44, ptr %45, align 8, !tbaa !40
  %46 = load i64, ptr %8, align 8, !tbaa !37
  %47 = getelementptr inbounds nuw %"class.std::__1::ios_base", ptr %11, i32 0, i32 11
  store i64 %46, ptr %47, align 8, !tbaa !58
  call void @llvm.lifetime.end.p0(i64 8, ptr %10) #3
  call void @llvm.lifetime.end.p0(i64 8, ptr %9) #3
  call void @llvm.lifetime.end.p0(i64 8, ptr %8) #3
  br label %48

48:                                               ; preds = %43, %3
  %49 = load ptr, ptr %5, align 8, !tbaa !39
  %50 = getelementptr inbounds nuw %"class.std::__1::ios_base", ptr %11, i32 0, i32 8
  %51 = load ptr, ptr %50, align 8, !tbaa !38
  %52 = getelementptr inbounds nuw %"class.std::__1::ios_base", ptr %11, i32 0, i32 10
  %53 = load i64, ptr %52, align 8, !tbaa !31
  %54 = getelementptr inbounds nuw ptr, ptr %51, i64 %53
  store ptr %49, ptr %54, align 8, !tbaa !39
  %55 = load i32, ptr %6, align 4, !tbaa !9
  %56 = getelementptr inbounds nuw %"class.std::__1::ios_base", ptr %11, i32 0, i32 9
  %57 = load ptr, ptr %56, align 8, !tbaa !40
  %58 = getelementptr inbounds nuw %"class.std::__1::ios_base", ptr %11, i32 0, i32 10
  %59 = load i64, ptr %58, align 8, !tbaa !31
  %60 = getelementptr inbounds nuw i32, ptr %57, i64 %59
  store i32 %55, ptr %60, align 4, !tbaa !9
  %61 = getelementptr inbounds nuw %"class.std::__1::ios_base", ptr %11, i32 0, i32 10
  %62 = load i64, ptr %61, align 8, !tbaa !31
  %63 = add i64 %62, 1
  store i64 %63, ptr %61, align 8, !tbaa !31
  call void @llvm.lifetime.end.p0(i64 8, ptr %7) #3
  ret void
}