; Function Attrs: mustprogress uwtable
define dso_local void @_ZNSt3__18ios_base17register_callbackEPFvNS0_5eventERS0_iEi(ptr noundef nonnull align 8 captures(none) dereferenceable(136) %0, ptr noundef %1, i32 noundef %2) local_unnamed_addr #1 align 2 {
  %4 = getelementptr inbounds nuw i8, ptr %0, i64 72
  %5 = load i64, ptr %4, align 8, !tbaa !15
  %6 = add i64 %5, 1
  %7 = getelementptr inbounds nuw i8, ptr %0, i64 80
  %8 = load i64, ptr %7, align 8, !tbaa !35
  %9 = icmp ugt i64 %6, %8
  br i1 %9, label %10, label %39

10:                                               ; preds = %3
  %11 = icmp ult i64 %6, 1152921504606846975
  %12 = shl i64 %8, 1
  %.sroa.speculated.i = tail call i64 @llvm.umax.i64(i64 %12, i64 %6)
  %.0.i = select i1 %11, i64 %.sroa.speculated.i, i64 2305843009213693951
  %13 = getelementptr inbounds nuw i8, ptr %0, i64 56
  %14 = load ptr, ptr %13, align 8, !tbaa !21
  %15 = shl i64 %.0.i, 3
  %16 = tail call ptr @realloc(ptr noundef %14, i64 noundef %15) #27
  %17 = icmp eq ptr %16, null
  br i1 %17, label %18, label %_ZNSt3__18ios_base8setstateB8ne210000Ej.exit

18:                                               ; preds = %10
  %19 = getelementptr inbounds nuw i8, ptr %0, i64 32
  %20 = load i32, ptr %19, align 8, !tbaa !29
  %21 = or i32 %20, 1
  store i32 %21, ptr %19, align 8, !tbaa !29
  %22 = getelementptr inbounds nuw i8, ptr %0, i64 36
  %23 = load i32, ptr %22, align 4, !tbaa !30
  %24 = and i32 %23, %21
  %.not4.i.i = icmp eq i32 %24, 0
  br i1 %.not4.i.i, label %_ZNSt3__18ios_base8setstateB8ne210000Ej.exit, label %25

25:                                               ; preds = %18
  tail call void @_ZNSt3__115__throw_failureB8ne210000EPKc(ptr noundef nonnull @.str.2) #28
  unreachable

_ZNSt3__18ios_base8setstateB8ne210000Ej.exit:     ; preds = %18, %10
  store ptr %16, ptr %13, align 8, !tbaa !21
  %26 = getelementptr inbounds nuw i8, ptr %0, i64 64
  %27 = load ptr, ptr %26, align 8, !tbaa !23
  %28 = shl i64 %.0.i, 2
  %29 = tail call ptr @realloc(ptr noundef %27, i64 noundef %28) #27
  %30 = icmp eq ptr %29, null
  br i1 %30, label %31, label %_ZNSt3__18ios_base8setstateB8ne210000Ej.exit15

31:                                               ; preds = %_ZNSt3__18ios_base8setstateB8ne210000Ej.exit
  %32 = getelementptr inbounds nuw i8, ptr %0, i64 32
  %33 = load i32, ptr %32, align 8, !tbaa !29
  %34 = or i32 %33, 1
  store i32 %34, ptr %32, align 8, !tbaa !29
  %35 = getelementptr inbounds nuw i8, ptr %0, i64 36
  %36 = load i32, ptr %35, align 4, !tbaa !30
  %37 = and i32 %36, %34
  %.not4.i.i14 = icmp eq i32 %37, 0
  br i1 %.not4.i.i14, label %_ZNSt3__18ios_base8setstateB8ne210000Ej.exit15, label %38

38:                                               ; preds = %31
  tail call void @_ZNSt3__115__throw_failureB8ne210000EPKc(ptr noundef nonnull @.str.2) #28
  unreachable

_ZNSt3__18ios_base8setstateB8ne210000Ej.exit15:   ; preds = %31, %_ZNSt3__18ios_base8setstateB8ne210000Ej.exit
  store ptr %29, ptr %26, align 8, !tbaa !23
  store i64 %.0.i, ptr %7, align 8, !tbaa !35
  %.pre = load i64, ptr %4, align 8, !tbaa !15
  %.pre16 = add i64 %.pre, 1
  br label %39

39:                                               ; preds = %_ZNSt3__18ios_base8setstateB8ne210000Ej.exit15, %3
  %.pre-phi = phi i64 [ %.pre16, %_ZNSt3__18ios_base8setstateB8ne210000Ej.exit15 ], [ %6, %3 ]
  %40 = phi i64 [ %.pre, %_ZNSt3__18ios_base8setstateB8ne210000Ej.exit15 ], [ %5, %3 ]
  %41 = getelementptr inbounds nuw i8, ptr %0, i64 56
  %42 = load ptr, ptr %41, align 8, !tbaa !21
  %43 = getelementptr inbounds nuw ptr, ptr %42, i64 %40
  store ptr %1, ptr %43, align 8, !tbaa !22
  %44 = getelementptr inbounds nuw i8, ptr %0, i64 64
  %45 = load ptr, ptr %44, align 8, !tbaa !23
  %46 = getelementptr inbounds nuw i32, ptr %45, i64 %40
  store i32 %2, ptr %46, align 4, !tbaa !8
  store i64 %.pre-phi, ptr %4, align 8, !tbaa !15
  ret void
}